target datalayout = "e-m:e-p270:32:32-p271:32:32-p272:64:64-i64:64-i128:128-f80:128-n8:16:32:64-S128"
target triple = "x86_64-pc-linux-gnu"

%"class.ncnn::ParamDict" = type { ptr, ptr }
%"class.ncnn::ParamDictPrivate" = type { [32 x %struct.anon] }
%struct.anon = type { i32, %union.anon, %"class.ncnn::Mat", %"class.std::__cxx11::basic_string" }
%union.anon = type { i32 }
%"class.ncnn::Mat" = type { ptr, ptr, i64, i32, ptr, i32, i32, i32, i32, i32, i64 }
%"class.std::__cxx11::basic_string" = type { %"struct.std::__cxx11::basic_string<char>::_Alloc_hider", i64, %union.anon.0 }
%"struct.std::__cxx11::basic_string<char>::_Alloc_hider" = type { ptr }
%union.anon.0 = type { i64, [8 x i8] }

; Function Attrs: alwaysinline mustprogress nounwind uwtable
define internal void @_ZN4ncnnL8fastFreeEPv(ptr noundef %0) #6 {
  %2 = alloca ptr, align 8
  store ptr %0, ptr %2, align 8, !tbaa !29
  %3 = load ptr, ptr %2, align 8, !tbaa !29
  %4 = icmp ne ptr %3, null
  br i1 %4, label %5, label %7

5:                                                ; preds = %1
  %6 = load ptr, ptr %2, align 8, !tbaa !29
  call void @free(ptr noundef %6) #17
  br label %7

7:                                                ; preds = %5, %1
  ret void
}

; Function Attrs: alwaysinline mustprogress uwtable
define linkonce_odr hidden void @_ZN4ncnn3Mat7releaseEv(ptr noundef nonnull align 8 dereferenceable(72) %0) #9 comdat align 2 {
  %2 = alloca ptr, align 8
  %3 = alloca i32, align 4
  %4 = alloca i32, align 4
  store ptr %0, ptr %2, align 8, !tbaa !30
  %5 = load ptr, ptr %2, align 8
  %6 = getelementptr inbounds nuw %"class.ncnn::Mat", ptr %5, i32 0, i32 1
  %7 = load ptr, ptr %6, align 8, !tbaa !33
  %8 = icmp ne ptr %7, null
  br i1 %8, label %9, label %32

9:                                                ; preds = %1
  %10 = getelementptr inbounds nuw %"class.ncnn::Mat", ptr %5, i32 0, i32 1
  %11 = load ptr, ptr %10, align 8, !tbaa !33
  store i32 -1, ptr %3, align 4, !tbaa !15
  %12 = load i32, ptr %3, align 4
  %13 = atomicrmw add ptr %11, i32 %12 acq_rel, align 4
  store i32 %13, ptr %4, align 4
  %14 = load i32, ptr %4, align 4, !tbaa !15
  %15 = icmp eq i32 %14, 1
  br i1 %15, label %16, label %32

16:                                               ; preds = %9
  %17 = getelementptr inbounds nuw %"class.ncnn::Mat", ptr %5, i32 0, i32 4
  %18 = load ptr, ptr %17, align 8, !tbaa !36
  %19 = icmp ne ptr %18, null
  br i1 %19, label %20, label %28

20:                                               ; preds = %16
  %21 = getelementptr inbounds nuw %"class.ncnn::Mat", ptr %5, i32 0, i32 4
  %22 = load ptr, ptr %21, align 8, !tbaa !36
  %23 = getelementptr inbounds nuw %"class.ncnn::Mat", ptr %5, i32 0, i32 0
  %24 = load ptr, ptr %23, align 8, !tbaa !32
  %25 = load ptr, ptr %22, align 8, !tbaa !9
  %26 = getelementptr inbounds ptr, ptr %25, i64 3
  %27 = load ptr, ptr %26, align 8
  call void %27(ptr noundef nonnull align 8 dereferenceable(8) %22, ptr noundef %24)
  br label %31

28:                                               ; preds = %16
  %29 = getelementptr inbounds nuw %"class.ncnn::Mat", ptr %5, i32 0, i32 0
  %30 = load ptr, ptr %29, align 8, !tbaa !32
  call void @_ZN4ncnnL8fastFreeEPv(ptr noundef %30)
  br label %31

31:                                               ; preds = %28, %20
  br label %32

32:                                               ; preds = %31, %9, %1
  %33 = getelementptr inbounds nuw %"class.ncnn::Mat", ptr %5, i32 0, i32 0
  store ptr null, ptr %33, align 8, !tbaa !32
  %34 = getelementptr inbounds nuw %"class.ncnn::Mat", ptr %5, i32 0, i32 2
  store i64 0, ptr %34, align 8, !tbaa !34
  %35 = getelementptr inbounds nuw %"class.ncnn::Mat", ptr %5, i32 0, i32 3
  store i32 0, ptr %35, align 8, !tbaa !35
  %36 = getelementptr inbounds nuw %"class.ncnn::Mat", ptr %5, i32 0, i32 5
  store i32 0, ptr %36, align 8, !tbaa !37
  %37 = getelementptr inbounds nuw %"class.ncnn::Mat", ptr %5, i32 0, i32 6
  store i32 0, ptr %37, align 4, !tbaa !38
  %38 = getelementptr inbounds nuw %"class.ncnn::Mat", ptr %5, i32 0, i32 7
  store i32 0, ptr %38, align 8, !tbaa !39
  %39 = getelementptr inbounds nuw %"class.ncnn::Mat", ptr %5, i32 0, i32 8
  store i32 0, ptr %39, align 4, !tbaa !40
  %40 = getelementptr inbounds nuw %"class.ncnn::Mat", ptr %5, i32 0, i32 9
  store i32 0, ptr %40, align 8, !tbaa !41
  %41 = getelementptr inbounds nuw %"class.ncnn::Mat", ptr %5, i32 0, i32 10
  store i64 0, ptr %41, align 8, !tbaa !42
  %42 = getelementptr inbounds nuw %"class.ncnn::Mat", ptr %5, i32 0, i32 1
  store ptr null, ptr %42, align 8, !tbaa !33
  ret void
}

; Function Attrs: mustprogress uwtable
define available_externally noundef nonnull align 8 dereferenceable(32) ptr @_ZNSt7__cxx1112basic_stringIcSt11char_traitsIcESaIcEE6assignERKS4_(ptr noundef nonnull align 8 dereferenceable(32) %0, ptr noundef nonnull align 8 dereferenceable(32) %1) #1 align 2 {
  %3 = alloca ptr, align 8
  %4 = alloca ptr, align 8
  store ptr %0, ptr %3, align 8, !tbaa !43
  store ptr %1, ptr %4, align 8, !tbaa !43
  %5 = load ptr, ptr %3, align 8
  %6 = load ptr, ptr %4, align 8, !tbaa !43
  call void @_ZNSt7__cxx1112basic_stringIcSt11char_traitsIcESaIcEE9_M_assignERKS4_(ptr noundef nonnull align 8 dereferenceable(32) %5, ptr noundef nonnull align 8 dereferenceable(32) %6)
  ret ptr %5
}

; Function Attrs: alwaysinline mustprogress uwtable
define linkonce_odr hidden noundef nonnull align 8 dereferenceable(72) ptr @_ZN4ncnn3MataSERKS0_(ptr noundef nonnull align 8 dereferenceable(72) %0, ptr noundef nonnull align 8 dereferenceable(72) %1) #9 comdat align 2 {
  %3 = alloca ptr, align 8
  %4 = alloca ptr, align 8
  %5 = alloca ptr, align 8
  %6 = alloca i32, align 4
  %7 = alloca i32, align 4
  store ptr %0, ptr %4, align 8, !tbaa !30
  store ptr %1, ptr %5, align 8, !tbaa !30
  %8 = load ptr, ptr %4, align 8
  %9 = load ptr, ptr %5, align 8, !tbaa !30
  %10 = icmp eq ptr %8, %9
  br i1 %10, label %11, label %12

11:                                               ; preds = %2
  store ptr %8, ptr %3, align 8
  br label %68

12:                                               ; preds = %2
  %13 = load ptr, ptr %5, align 8, !tbaa !30
  %14 = getelementptr inbounds nuw %"class.ncnn::Mat", ptr %13, i32 0, i32 1
  %15 = load ptr, ptr %14, align 8, !tbaa !33
  %16 = icmp ne ptr %15, null
  br i1 %16, label %17, label %23

17:                                               ; preds = %12
  %18 = load ptr, ptr %5, align 8, !tbaa !30
  %19 = getelementptr inbounds nuw %"class.ncnn::Mat", ptr %18, i32 0, i32 1
  %20 = load ptr, ptr %19, align 8, !tbaa !33
  store i32 1, ptr %6, align 4, !tbaa !15
  %21 = load i32, ptr %6, align 4
  %22 = atomicrmw add ptr %20, i32 %21 acq_rel, align 4
  store i32 %22, ptr %7, align 4
  br label %23

23:                                               ; preds = %17, %12
  call void @_ZN4ncnn3Mat7releaseEv(ptr noundef nonnull align 8 dereferenceable(72) %8)
  %24 = load ptr, ptr %5, align 8, !tbaa !30
  %25 = getelementptr inbounds nuw %"class.ncnn::Mat", ptr %24, i32 0, i32 0
  %26 = load ptr, ptr %25, align 8, !tbaa !32
  %27 = getelementptr inbounds nuw %"class.ncnn::Mat", ptr %8, i32 0, i32 0
  store ptr %26, ptr %27, align 8, !tbaa !32
  %28 = load ptr, ptr %5, align 8, !tbaa !30
  %29 = getelementptr inbounds nuw %"class.ncnn::Mat", ptr %28, i32 0, i32 1
  %30 = load ptr, ptr %29, align 8, !tbaa !33
  %31 = getelementptr inbounds nuw %"class.ncnn::Mat", ptr %8, i32 0, i32 1
  store ptr %30, ptr %31, align 8, !tbaa !33
  %32 = load ptr, ptr %5, align 8, !tbaa !30
  %33 = getelementptr inbounds nuw %"class.ncnn::Mat", ptr %32, i32 0, i32 2
  %34 = load i64, ptr %33, align 8, !tbaa !34
  %35 = getelementptr inbounds nuw %"class.ncnn::Mat", ptr %8, i32 0, i32 2
  store i64 %34, ptr %35, align 8, !tbaa !34
  %36 = load ptr, ptr %5, align 8, !tbaa !30
  %37 = getelementptr inbounds nuw %"class.ncnn::Mat", ptr %36, i32 0, i32 3
  %38 = load i32, ptr %37, align 8, !tbaa !35
  %39 = getelementptr inbounds nuw %"class.ncnn::Mat", ptr %8, i32 0, i32 3
  store i32 %38, ptr %39, align 8, !tbaa !35
  %40 = load ptr, ptr %5, align 8, !tbaa !30
  %41 = getelementptr inbounds nuw %"class.ncnn::Mat", ptr %40, i32 0, i32 4
  %42 = load ptr, ptr %41, align 8, !tbaa !36
  %43 = getelementptr inbounds nuw %"class.ncnn::Mat", ptr %8, i32 0, i32 4
  store ptr %42, ptr %43, align 8, !tbaa !36
  %44 = load ptr, ptr %5, align 8, !tbaa !30
  %45 = getelementptr inbounds nuw %"class.ncnn::Mat", ptr %44, i32 0, i32 5
  %46 = load i32, ptr %45, align 8, !tbaa !37
  %47 = getelementptr inbounds nuw %"class.ncnn::Mat", ptr %8, i32 0, i32 5
  store i32 %46, ptr %47, align 8, !tbaa !37
  %48 = load ptr, ptr %5, align 8, !tbaa !30
  %49 = getelementptr inbounds nuw %"class.ncnn::Mat", ptr %48, i32 0, i32 6
  %50 = load i32, ptr %49, align 4, !tbaa !38
  %51 = getelementptr inbounds nuw %"class.ncnn::Mat", ptr %8, i32 0, i32 6
  store i32 %50, ptr %51, align 4, !tbaa !38
  %52 = load ptr, ptr %5, align 8, !tbaa !30
  %53 = getelementptr inbounds nuw %"class.ncnn::Mat", ptr %52, i32 0, i32 7
  %54 = load i32, ptr %53, align 8, !tbaa !39
  %55 = getelementptr inbounds nuw %"class.ncnn::Mat", ptr %8, i32 0, i32 7
  store i32 %54, ptr %55, align 8, !tbaa !39
  %56 = load ptr, ptr %5, align 8, !tbaa !30
  %57 = getelementptr inbounds nuw %"class.ncnn::Mat", ptr %56, i32 0, i32 8
  %58 = load i32, ptr %57, align 4, !tbaa !40
  %59 = getelementptr inbounds nuw %"class.ncnn::Mat", ptr %8, i32 0, i32 8
  store i32 %58, ptr %59, align 4, !tbaa !40
  %60 = load ptr, ptr %5, align 8, !tbaa !30
  %61 = getelementptr inbounds nuw %"class.ncnn::Mat", ptr %60, i32 0, i32 9
  %62 = load i32, ptr %61, align 8, !tbaa !41
  %63 = getelementptr inbounds nuw %"class.ncnn::Mat", ptr %8, i32 0, i32 9
  store i32 %62, ptr %63, align 8, !tbaa !41
  %64 = load ptr, ptr %5, align 8, !tbaa !30
  %65 = getelementptr inbounds nuw %"class.ncnn::Mat", ptr %64, i32 0, i32 10
  %66 = load i64, ptr %65, align 8, !tbaa !42
  %67 = getelementptr inbounds nuw %"class.ncnn::Mat", ptr %8, i32 0, i32 10
  store i64 %66, ptr %67, align 8, !tbaa !42
  store ptr %8, ptr %3, align 8
  br label %68

68:                                               ; preds = %23, %11
  %69 = load ptr, ptr %3, align 8
  ret ptr %69
}

; Function Attrs: mustprogress uwtable
define available_externally noundef nonnull align 8 dereferenceable(32) ptr @_ZNSt7__cxx1112basic_stringIcSt11char_traitsIcESaIcEEaSERKS4_(ptr noundef nonnull align 8 dereferenceable(32) %0, ptr noundef nonnull align 8 dereferenceable(32) %1) #1 align 2 {
  %3 = alloca ptr, align 8
  %4 = alloca ptr, align 8
  store ptr %0, ptr %3, align 8, !tbaa !43
  store ptr %1, ptr %4, align 8, !tbaa !43
  %5 = load ptr, ptr %3, align 8
  %6 = load ptr, ptr %4, align 8, !tbaa !43
  %7 = call noundef nonnull align 8 dereferenceable(32) ptr @_ZNSt7__cxx1112basic_stringIcSt11char_traitsIcESaIcEE6assignERKS4_(ptr noundef nonnull align 8 dereferenceable(32) %5, ptr noundef nonnull align 8 dereferenceable(32) %6)
  ret ptr %7
}

; Function Attrs: mustprogress uwtable
define hidden noundef nonnull align 8 dereferenceable(16) ptr @_ZN4ncnn9ParamDictaSERKS0_(ptr noundef nonnull align 8 dereferenceable(16) %0, ptr noundef nonnull align 8 dereferenceable(16) %1) #1 align 2 {
  %3 = alloca ptr, align 8
  %4 = alloca ptr, align 8
  %5 = alloca ptr, align 8
  %6 = alloca i32, align 4
  %7 = alloca i32, align 4
  store ptr %0, ptr %4, align 8, !tbaa !4
  store ptr %1, ptr %5, align 8, !tbaa !4
  %8 = load ptr, ptr %4, align 8
  %9 = load ptr, ptr %5, align 8, !tbaa !4
  %10 = icmp eq ptr %8, %9
  br i1 %10, label %11, label %12

11:                                               ; preds = %2
  store ptr %8, ptr %3, align 8
  br label %103

12:                                               ; preds = %2
  call void @llvm.lifetime.start.p0(i64 4, ptr %6) #17
  store i32 0, ptr %6, align 4, !tbaa !15
  br label %13

13:                                               ; preds = %99, %12
  %14 = load i32, ptr %6, align 4, !tbaa !15
  %15 = icmp slt i32 %14, 32
  br i1 %15, label %17, label %16

16:                                               ; preds = %13
  call void @llvm.lifetime.end.p0(i64 4, ptr %6) #17
  br label %102

17:                                               ; preds = %13
  call void @llvm.lifetime.start.p0(i64 4, ptr %7) #17
  %18 = load ptr, ptr %5, align 8, !tbaa !4
  %19 = getelementptr inbounds nuw %"class.ncnn::ParamDict", ptr %18, i32 0, i32 1
  %20 = load ptr, ptr %19, align 8, !tbaa !11
  %21 = getelementptr inbounds nuw %"class.ncnn::ParamDictPrivate", ptr %20, i32 0, i32 0
  %22 = load i32, ptr %6, align 4, !tbaa !15
  %23 = sext i32 %22 to i64
  %24 = getelementptr inbounds [32 x %struct.anon], ptr %21, i64 0, i64 %23
  %25 = getelementptr inbounds nuw %struct.anon, ptr %24, i32 0, i32 0
  %26 = load i32, ptr %25, align 8, !tbaa !17
  store i32 %26, ptr %7, align 4, !tbaa !15
  %27 = load i32, ptr %7, align 4, !tbaa !15
  %28 = getelementptr inbounds nuw %"class.ncnn::ParamDict", ptr %8, i32 0, i32 1
  %29 = load ptr, ptr %28, align 8, !tbaa !11
  %30 = getelementptr inbounds nuw %"class.ncnn::ParamDictPrivate", ptr %29, i32 0, i32 0
  %31 = load i32, ptr %6, align 4, !tbaa !15
  %32 = sext i32 %31 to i64
  %33 = getelementptr inbounds [32 x %struct.anon], ptr %30, i64 0, i64 %32
  %34 = getelementptr inbounds nuw %struct.anon, ptr %33, i32 0, i32 0
  store i32 %27, ptr %34, align 8, !tbaa !17
  %35 = load i32, ptr %7, align 4, !tbaa !15
  %36 = icmp eq i32 %35, 1
  br i1 %36, label %43, label %37

37:                                               ; preds = %17
  %38 = load i32, ptr %7, align 4, !tbaa !15
  %39 = icmp eq i32 %38, 2
  br i1 %39, label %43, label %40

40:                                               ; preds = %37
  %41 = load i32, ptr %7, align 4, !tbaa !15
  %42 = icmp eq i32 %41, 3
  br i1 %42, label %43, label %60

43:                                               ; preds = %40, %37, %17
  %44 = load ptr, ptr %5, align 8, !tbaa !4
  %45 = getelementptr inbounds nuw %"class.ncnn::ParamDict", ptr %44, i32 0, i32 1
  %46 = load ptr, ptr %45, align 8, !tbaa !11
  %47 = getelementptr inbounds nuw %"class.ncnn::ParamDictPrivate", ptr %46, i32 0, i32 0
  %48 = load i32, ptr %6, align 4, !tbaa !15
  %49 = sext i32 %48 to i64
  %50 = getelementptr inbounds [32 x %struct.anon], ptr %47, i64 0, i64 %49
  %51 = getelementptr inbounds nuw %struct.anon, ptr %50, i32 0, i32 1
  %52 = load i32, ptr %51, align 4, !tbaa !26
  %53 = getelementptr inbounds nuw %"class.ncnn::ParamDict", ptr %8, i32 0, i32 1
  %54 = load ptr, ptr %53, align 8, !tbaa !11
  %55 = getelementptr inbounds nuw %"class.ncnn::ParamDictPrivate", ptr %54, i32 0, i32 0
  %56 = load i32, ptr %6, align 4, !tbaa !15
  %57 = sext i32 %56 to i64
  %58 = getelementptr inbounds [32 x %struct.anon], ptr %55, i64 0, i64 %57
  %59 = getelementptr inbounds nuw %struct.anon, ptr %58, i32 0, i32 1
  store i32 %52, ptr %59, align 4, !tbaa !26
  br label %98

60:                                               ; preds = %40
  %61 = load i32, ptr %7, align 4, !tbaa !15
  %62 = icmp eq i32 %61, 7
  br i1 %62, label %63, label %80

63:                                               ; preds = %60
  %64 = load ptr, ptr %5, align 8, !tbaa !4
  %65 = getelementptr inbounds nuw %"class.ncnn::ParamDict", ptr %64, i32 0, i32 1
  %66 = load ptr, ptr %65, align 8, !tbaa !11
  %67 = getelementptr inbounds nuw %"class.ncnn::ParamDictPrivate", ptr %66, i32 0, i32 0
  %68 = load i32, ptr %6, align 4, !tbaa !15
  %69 = sext i32 %68 to i64
  %70 = getelementptr inbounds [32 x %struct.anon], ptr %67, i64 0, i64 %69
  %71 = getelementptr inbounds nuw %struct.anon, ptr %70, i32 0, i32 3
  %72 = getelementptr inbounds nuw %"class.ncnn::ParamDict", ptr %8, i32 0, i32 1
  %73 = load ptr, ptr %72, align 8, !tbaa !11
  %74 = getelementptr inbounds nuw %"class.ncnn::ParamDictPrivate", ptr %73, i32 0, i32 0
  %75 = load i32, ptr %6, align 4, !tbaa !15
  %76 = sext i32 %75 to i64
  %77 = getelementptr inbounds [32 x %struct.anon], ptr %74, i64 0, i64 %76
  %78 = getelementptr inbounds nuw %struct.anon, ptr %77, i32 0, i32 3
  %79 = call noundef nonnull align 8 dereferenceable(32) ptr @_ZNSt7__cxx1112basic_stringIcSt11char_traitsIcESaIcEEaSERKS4_(ptr noundef nonnull align 8 dereferenceable(32) %78, ptr noundef nonnull align 8 dereferenceable(32) %71)
  br label %97

80:                                               ; preds = %60
  %81 = load ptr, ptr %5, align 8, !tbaa !4
  %82 = getelementptr inbounds nuw %"class.ncnn::ParamDict", ptr %81, i32 0, i32 1
  %83 = load ptr, ptr %82, align 8, !tbaa !11
  %84 = getelementptr inbounds nuw %"class.ncnn::ParamDictPrivate", ptr %83, i32 0, i32 0
  %85 = load i32, ptr %6, align 4, !tbaa !15
  %86 = sext i32 %85 to i64
  %87 = getelementptr inbounds [32 x %struct.anon], ptr %84, i64 0, i64 %86
  %88 = getelementptr inbounds nuw %struct.anon, ptr %87, i32 0, i32 2
  %89 = getelementptr inbounds nuw %"class.ncnn::ParamDict", ptr %8, i32 0, i32 1
  %90 = load ptr, ptr %89, align 8, !tbaa !11
  %91 = getelementptr inbounds nuw %"class.ncnn::ParamDictPrivate", ptr %90, i32 0, i32 0
  %92 = load i32, ptr %6, align 4, !tbaa !15
  %93 = sext i32 %92 to i64
  %94 = getelementptr inbounds [32 x %struct.anon], ptr %91, i64 0, i64 %93
  %95 = getelementptr inbounds nuw %struct.anon, ptr %94, i32 0, i32 2
  %96 = call noundef nonnull align 8 dereferenceable(72) ptr @_ZN4ncnn3MataSERKS0_(ptr noundef nonnull align 8 dereferenceable(72) %95, ptr noundef nonnull align 8 dereferenceable(72) %88)
  br label %97

97:                                               ; preds = %80, %63
  br label %98

98:                                               ; preds = %97, %43
  call void @llvm.lifetime.end.p0(i64 4, ptr %7) #17
  br label %99

99:                                               ; preds = %98
  %100 = load i32, ptr %6, align 4, !tbaa !15
  %101 = add nsw i32 %100, 1
  store i32 %101, ptr %6, align 4, !tbaa !15
  br label %13, !llvm.loop !57

102:                                              ; preds = %16
  store ptr %8, ptr %3, align 8
  br label %103

103:                                              ; preds = %102, %11
  %104 = load ptr, ptr %3, align 8
  ret ptr %104
}