; Function Attrs: mustprogress uwtable
define hidden noundef nonnull align 8 dereferenceable(16) ptr @_ZN4ncnn9ParamDictaSERKS0_(ptr noundef nonnull readonly returned align 8 dereferenceable(16) %0, ptr noundef nonnull readonly align 8 dereferenceable(16) %1) local_unnamed_addr #1 align 2 {
  %3 = icmp eq ptr %0, %1
  br i1 %3, label %.loopexit, label %.preheader

.preheader:                                       ; preds = %2
  %4 = getelementptr inbounds nuw i8, ptr %1, i64 8
  %5 = getelementptr inbounds nuw i8, ptr %0, i64 8
  br label %6

6:                                                ; preds = %.preheader, %_ZN4ncnn3MataSERKS0_.exit
  %indvars.iv = phi i64 [ 0, %.preheader ], [ %indvars.iv.next, %_ZN4ncnn3MataSERKS0_.exit ]
  %7 = load ptr, ptr %4, align 8, !tbaa !21
  %8 = getelementptr inbounds nuw [32 x %struct.anon], ptr %7, i64 0, i64 %indvars.iv
  %9 = load i32, ptr %8, align 8, !tbaa !24
  %10 = load ptr, ptr %5, align 8, !tbaa !21
  %11 = getelementptr inbounds nuw [32 x %struct.anon], ptr %10, i64 0, i64 %indvars.iv
  store i32 %9, ptr %11, align 8, !tbaa !24
  %12 = add i32 %9, -1
  %or.cond3 = icmp ult i32 %12, 3
  br i1 %or.cond3, label %13, label %17

13:                                               ; preds = %6
  %14 = getelementptr inbounds nuw [32 x %struct.anon], ptr %7, i64 0, i64 %indvars.iv, i32 1
  %15 = load i32, ptr %14, align 4, !tbaa !20
  %16 = getelementptr inbounds nuw [32 x %struct.anon], ptr %10, i64 0, i64 %indvars.iv, i32 1
  store i32 %15, ptr %16, align 4, !tbaa !20
  br label %_ZN4ncnn3MataSERKS0_.exit

17:                                               ; preds = %6
  %18 = icmp eq i32 %9, 7
  br i1 %18, label %19, label %22

19:                                               ; preds = %17
  %20 = getelementptr inbounds nuw [32 x %struct.anon], ptr %7, i64 0, i64 %indvars.iv, i32 3
  %21 = getelementptr inbounds nuw [32 x %struct.anon], ptr %10, i64 0, i64 %indvars.iv, i32 3
  tail call void @_ZNSt7__cxx1112basic_stringIcSt11char_traitsIcESaIcEE9_M_assignERKS4_(ptr noundef nonnull align 8 dereferenceable(32) %21, ptr noundef nonnull align 8 dereferenceable(32) %20)
  br label %_ZN4ncnn3MataSERKS0_.exit

22:                                               ; preds = %17
  %23 = getelementptr inbounds nuw [32 x %struct.anon], ptr %7, i64 0, i64 %indvars.iv, i32 2
  %24 = getelementptr inbounds nuw [32 x %struct.anon], ptr %10, i64 0, i64 %indvars.iv, i32 2
  %25 = icmp eq ptr %10, %7
  br i1 %25, label %_ZN4ncnn3MataSERKS0_.exit, label %26

26:                                               ; preds = %22
  %27 = getelementptr inbounds nuw i8, ptr %23, i64 8
  %28 = load ptr, ptr %27, align 8, !tbaa !26
  %.not.i = icmp eq ptr %28, null
  br i1 %.not.i, label %31, label %29

29:                                               ; preds = %26
  %30 = atomicrmw add ptr %28, i32 1 acq_rel, align 4
  br label %31

31:                                               ; preds = %29, %26
  %32 = getelementptr inbounds nuw i8, ptr %24, i64 8
  %33 = load ptr, ptr %32, align 8, !tbaa !26
  %.not.i.i = icmp eq ptr %33, null
  br i1 %.not.i.i, label %_ZN4ncnn3Mat7releaseEv.exit.i, label %34

34:                                               ; preds = %31
  %35 = atomicrmw add ptr %33, i32 -1 acq_rel, align 4
  %36 = icmp eq i32 %35, 1
  br i1 %36, label %37, label %_ZN4ncnn3Mat7releaseEv.exit.i

37:                                               ; preds = %34
  %38 = getelementptr inbounds nuw i8, ptr %24, i64 32
  %39 = load ptr, ptr %38, align 8, !tbaa !27
  %.not3.i.i = icmp eq ptr %39, null
  %40 = load ptr, ptr %24, align 8, !tbaa !28
  br i1 %.not3.i.i, label %45, label %41

41:                                               ; preds = %37
  %42 = load ptr, ptr %39, align 8, !tbaa !4
  %43 = getelementptr inbounds nuw i8, ptr %42, i64 24
  %44 = load ptr, ptr %43, align 8
  tail call void %44(ptr noundef nonnull align 8 dereferenceable(8) %39, ptr noundef %40)
  br label %_ZN4ncnn3Mat7releaseEv.exit.i

45:                                               ; preds = %37
  %.not.i18.i = icmp eq ptr %40, null
  br i1 %.not.i18.i, label %_ZN4ncnn3Mat7releaseEv.exit.i, label %46

46:                                               ; preds = %45
  tail call void @free(ptr noundef nonnull %40) #22
  br label %_ZN4ncnn3Mat7releaseEv.exit.i

_ZN4ncnn3Mat7releaseEv.exit.i:                    ; preds = %45, %46, %41, %34, %31
  %47 = getelementptr inbounds nuw i8, ptr %24, i64 16
  %48 = getelementptr inbounds nuw i8, ptr %24, i64 24
  %49 = getelementptr inbounds nuw i8, ptr %24, i64 40
  %50 = getelementptr inbounds nuw i8, ptr %24, i64 44
  %51 = getelementptr inbounds nuw i8, ptr %24, i64 48
  %52 = getelementptr inbounds nuw i8, ptr %24, i64 52
  %53 = getelementptr inbounds nuw i8, ptr %24, i64 56
  %54 = getelementptr inbounds nuw i8, ptr %24, i64 64
  store i64 0, ptr %54, align 8, !tbaa !7
  tail call void @llvm.memset.p0.i64(ptr noundef nonnull align 8 dereferenceable(28) %24, i8 0, i64 28, i1 false)
  tail call void @llvm.memset.p0.i64(ptr noundef nonnull align 8 dereferenceable(20) %49, i8 0, i64 20, i1 false)
  %55 = load ptr, ptr %23, align 8, !tbaa !28
  store ptr %55, ptr %24, align 8, !tbaa !28
  %56 = load ptr, ptr %27, align 8, !tbaa !26
  store ptr %56, ptr %32, align 8, !tbaa !26
  %57 = getelementptr inbounds nuw i8, ptr %23, i64 16
  %58 = load i64, ptr %57, align 8, !tbaa !32
  store i64 %58, ptr %47, align 8, !tbaa !32
  %59 = getelementptr inbounds nuw i8, ptr %23, i64 24
  %60 = load i32, ptr %59, align 8, !tbaa !33
  store i32 %60, ptr %48, align 8, !tbaa !33
  %61 = getelementptr inbounds nuw i8, ptr %23, i64 32
  %62 = load ptr, ptr %61, align 8, !tbaa !27
  %63 = getelementptr inbounds nuw i8, ptr %24, i64 32
  store ptr %62, ptr %63, align 8, !tbaa !27
  %64 = getelementptr inbounds nuw i8, ptr %23, i64 40
  %65 = load i32, ptr %64, align 8, !tbaa !34
  store i32 %65, ptr %49, align 8, !tbaa !34
  %66 = getelementptr inbounds nuw i8, ptr %23, i64 44
  %67 = load i32, ptr %66, align 4, !tbaa !35
  store i32 %67, ptr %50, align 4, !tbaa !35
  %68 = getelementptr inbounds nuw i8, ptr %23, i64 48
  %69 = load i32, ptr %68, align 8, !tbaa !36
  store i32 %69, ptr %51, align 8, !tbaa !36
  %70 = getelementptr inbounds nuw i8, ptr %23, i64 52
  %71 = load i32, ptr %70, align 4, !tbaa !37
  store i32 %71, ptr %52, align 4, !tbaa !37
  %72 = getelementptr inbounds nuw i8, ptr %23, i64 56
  %73 = load i32, ptr %72, align 8, !tbaa !38
  store i32 %73, ptr %53, align 8, !tbaa !38
  %74 = getelementptr inbounds nuw i8, ptr %23, i64 64
  %75 = load i64, ptr %74, align 8, !tbaa !7
  store i64 %75, ptr %54, align 8, !tbaa !7
  br label %_ZN4ncnn3MataSERKS0_.exit

_ZN4ncnn3MataSERKS0_.exit:                        ; preds = %_ZN4ncnn3Mat7releaseEv.exit.i, %22, %19, %13
  %indvars.iv.next = add nuw nsw i64 %indvars.iv, 1
  %exitcond.not = icmp eq i64 %indvars.iv.next, 32
  br i1 %exitcond.not, label %.loopexit, label %6, !llvm.loop !40

.loopexit:                                        ; preds = %_ZN4ncnn3MataSERKS0_.exit, %2
  ret ptr %0
}